; Function Attrs: mustprogress nounwind willreturn uwtable
define void @Gia_ManFanoutStop(ptr noundef captures(none) initializes((240, 244)) %0) local_unnamed_addr #3 {
  %2 = getelementptr inbounds nuw i8, ptr %0, i64 232
  %3 = load ptr, ptr %2, align 8, !tbaa !29
  %.not = icmp eq ptr %3, null
  br i1 %.not, label %5, label %4

4:                                                ; preds = %1
  tail call void @free(ptr noundef nonnull %3) #15
  store ptr null, ptr %2, align 8, !tbaa !29
  br label %5

5:                                                ; preds = %1, %4
  %6 = getelementptr inbounds nuw i8, ptr %0, i64 240
  store i32 0, ptr %6, align 8, !tbaa !28
  ret void
}